Certificate:
    Data:
        Version: 3 (0x2)
        Serial Number: 1 (0x1)
        Signature Algorithm: sha256WithRSAEncryption
        Issuer: CN=devcert
        Validity
            Not Before: Apr  9 13:27:34 2024 GMT
            Not After : Jul 13 13:27:34 2026 GMT
        Subject: CN=localhost
        Subject Public Key Info:
            Public Key Algorithm: rsaEncryption
                Public-Key: (2048 bit)
                Modulus:
                    00:ac:43:bf:5e:6c:14:2e:ac:e6:91:1d:ed:27:68:
                    f9:8f:a8:03:6a:b8:6a:b6:06:22:ca:6f:92:ce:68:
                    af:11:e2:6b:87:ad:f5:bb:d4:e3:76:27:b4:c6:7d:
                    8a:64:32:96:f8:b0:b3:4f:f4:24:a2:ca:64:48:bd:
                    6d:15:55:44:cb:f0:0a:f0:bf:44:81:74:d0:17:39:
                    29:be:92:9f:c2:8f:86:95:98:33:b5:77:c4:bb:b0:
                    53:29:4b:24:5b:8a:5c:69:76:aa:04:64:8d:f6:f9:
                    4f:dc:da:eb:50:46:51:75:10:97:46:ec:ef:56:f0:
                    a9:d6:09:92:aa:40:03:e3:c2:bc:a9:4a:6a:19:dd:
                    f0:63:8a:96:a4:c7:95:c4:b1:2e:d1:9e:93:2a:4a:
                    a9:9b:3e:0f:06:a0:c9:9c:bc:d6:71:63:76:f0:2f:
                    5c:08:06:9e:b7:6a:29:97:df:b9:c8:6e:41:04:47:
                    a5:19:17:f8:c7:4d:ea:45:2b:a7:f9:46:f2:92:6f:
                    1a:ee:da:82:3b:32:1a:81:7b:fa:69:64:bf:73:20:
                    ea:b2:1a:5c:74:f7:81:d6:bf:84:0f:57:6f:2b:74:
                    54:c5:ea:ce:82:d4:79:7b:dc:50:92:5a:60:53:60:
                    98:79:ab:1f:d3:36:a8:7b:ae:c3:c8:bf:a5:4e:92:
                    9d:25
                Exponent: 65537 (0x10001)
        X509v3 extensions:
            X509v3 Basic Constraints: critical
                CA:FALSE
            X509v3 Subject Key Identifier: 
                43:E7:20:77:8C:87:DB:D2:71:4B:29:69:5B:8C:1C:B0:2D:A4:2C:45
            X509v3 Authority Key Identifier: 
                keyid:7B:45:C5:26:4E:70:6B:AD:A8:07:BF:56:CF:DE:C5:A1:AB:93:07:95
                DirName:/CN=devcert
                serial:3A:E8:15:54:C2:E6:45:EB:23:41:AC:03:59:25:6D:25:D9:E4:76:A2
            X509v3 Key Usage: critical
                Digital Signature, Key Encipherment
            X509v3 Extended Key Usage: 
                TLS Web Server Authentication
            X509v3 Subject Alternative Name: 
                DNS:localhost, DNS:*.localhost
    Signature Algorithm: sha256WithRSAEncryption
    Signature Value:
        6e:b8:21:fc:4f:bf:1a:da:20:ce:67:bb:55:a9:d6:ed:30:ef:
        a7:bd:24:3a:39:54:42:c7:96:6a:b3:d1:9f:54:de:e2:c8:15:
        28:b6:e6:0d:a3:de:63:e1:c5:1e:77:2f:c7:93:74:5e:ee:73:
        6b:c2:a2:cc:8b:d7:24:eb:7c:fc:d4:2d:b6:b4:b7:7e:35:a0:
        bf:0e:bc:94:32:88:f2:97:ef:ce:20:8f:d8:30:9e:0a:a6:43:
        75:89:48:8f:ce:5c:60:cf:37:35:ec:ec:ca:5b:18:ce:2f:e6:
        3c:67:e4:e2:dd:d4:2c:11:ba:31:0d:65:30:40:1c:85:7f:a6:
        34:46:06:51:58:65:53:ba:84:42:0a:84:7a:dc:19:77:ac:77:
        9e:5e:71:57:f9:75:04:ff:77:d5:e7:c4:41:15:41:24:22:07:
        d7:3c:56:68:f9:4e:64:de:a5:c6:67:6c:19:0b:d8:fb:3b:2c:
        98:08:e7:96:1f:71:7d:d6:88:97:2d:05:ed:72:9d:47:bc:f0:
        01:ff:46:55:77:5f:6c:43:e4:9d:15:93:71:77:dc:b0:1a:2a:
        90:c1:30:28:1a:84:d4:24:dd:0d:62:b5:fa:7c:ec:c3:a1:04:
        9a:89:8e:d5:e3:a8:61:04:da:ca:74:be:ea:76:f6:fb:68:83:
        c5:20:d3:2d
-----BEGIN CERTIFICATE-----
MIIDaTCCAlGgAwIBAgIBATANBgkqhkiG9w0BAQsFADASMRAwDgYDVQQDDAdkZXZj
ZXJ0MB4XDTI0MDQwOTEzMjczNFoXDTI2MDcxMzEzMjczNFowFDESMBAGA1UEAwwJ
bG9jYWxob3N0MIIBIjANBgkqhkiG9w0BAQEFAAOCAQ8AMIIBCgKCAQEArEO/XmwU
LqzmkR3tJ2j5j6gDarhqtgYiym+SzmivEeJrh631u9Tjdie0xn2KZDKW+LCzT/Qk
ospkSL1tFVVEy/AK8L9EgXTQFzkpvpKfwo+GlZgztXfEu7BTKUskW4pcaXaqBGSN
9vlP3NrrUEZRdRCXRuzvVvCp1gmSqkAD48K8qUpqGd3wY4qWpMeVxLEu0Z6TKkqp
mz4PBqDJnLzWcWN28C9cCAaet2opl9+5yG5BBEelGRf4x03qRSun+Ubykm8a7tqC
OzIagXv6aWS/cyDqshpcdPeB1r+ED1dvK3RUxerOgtR5e9xQklpgU2CYeasf0zao
e67DyL+lTpKdJQIDAQABo4HHMIHEMAwGA1UdEwEB/wQCMAAwHQYDVR0OBBYEFEPn
IHeMh9vScUspaVuMHLAtpCxFME0GA1UdIwRGMESAFHtFxSZOcGutqAe/Vs/exaGr
kweVoRakFDASMRAwDgYDVQQDDAdkZXZjZXJ0ghQ66BVUwuZF6yNBrANZJW0l2eR2
ojAOBgNVHQ8BAf8EBAMCBaAwEwYDVR0lBAwwCgYIKwYBBQUHAwEwIQYDVR0RBBow
GIIJbG9jYWxob3N0ggsqLmxvY2FsaG9zdDANBgkqhkiG9w0BAQsFAAOCAQEAbrgh
/E+/Gtogzme7VanW7TDvp70kOjlUQseWarPRn1Te4sgVKLbmDaPeY+HFHncvx5N0
Xu5za8KizIvXJOt8/NQttrS3fjWgvw68lDKI8pfvziCP2DCeCqZDdYlIj85cYM83
NezsylsYzi/mPGfk4t3ULBG6MQ1lMEAchX+mNEYGUVhlU7qEQgqEetwZd6x3nl5x
V/l1BP931efEQRVBJCIH1zxWaPlOZN6lxmdsGQvY+zssmAjnlh9xfdaIly0F7XKd
R7zwAf9GVXdfbEPknRWTcXfcsBoqkMEwKBqE1CTdDWK1+nzsw6EEmomO1eOoYQTa
ynS+6nb2+2iDxSDTLQ==
-----END CERTIFICATE-----
